target datalayout = "e-m:e-p270:32:32-p271:32:32-p272:64:64-i64:64-i128:128-f80:128-n8:16:32:64-S128"
target triple = "x86_64-pc-linux-gnu"

%"class.cv::Point_" = type { i32, i32 }
%"class.cv::_InputArray" = type { i32, ptr, %"class.cv::Size_" }
%"class.cv::Size_" = type { i32, i32 }
%"class.cv::detail::ExposureCompensator.base" = type <{ ptr, i8 }>
%"class.cv::Scalar_" = type { %"class.cv::Vec" }
%"class.cv::Vec" = type { %"class.cv::Matx" }
%"class.cv::Matx" = type { [4 x double] }
%"class.cv::utils::trace::details::Region" = type <{ ptr, i32, [4 x i8] }>
%"class.cv::detail::ChannelsCompensator" = type { %"class.cv::detail::ExposureCompensator.base", %"class.std::vector.51", i32, double }
%"class.std::vector.51" = type { %"struct.std::_Vector_base.52" }
%"struct.std::_Vector_base.52" = type { %"struct.std::_Vector_base<cv::Scalar_<double>, std::allocator<cv::Scalar_<double>>>::_Vector_impl" }
%"struct.std::_Vector_base<cv::Scalar_<double>, std::allocator<cv::Scalar_<double>>>::_Vector_impl" = type { %"struct.std::_Vector_base<cv::Scalar_<double>, std::allocator<cv::Scalar_<double>>>::_Vector_impl_data" }
%"struct.std::_Vector_base<cv::Scalar_<double>, std::allocator<cv::Scalar_<double>>>::_Vector_impl_data" = type { ptr, ptr, ptr }

@.str.29 = private unnamed_addr constant [74 x i8] c"vector::_M_range_check: __n (which is %zu) >= this->size() (which is %zu)\00", align 1

; Function Attrs: mustprogress nounwind uwtable
define linkonce_odr hidden noundef i64 @_ZNKSt6vectorIN2cv7Scalar_IdEESaIS2_EE4sizeEv(ptr noundef nonnull align 8 dereferenceable(24) %0) #8 comdat align 2 {
  %2 = alloca ptr, align 8
  store ptr %0, ptr %2, align 8, !tbaa !214
  %3 = load ptr, ptr %2, align 8
  %4 = getelementptr inbounds nuw %"struct.std::_Vector_base.52", ptr %3, i32 0, i32 0
  %5 = getelementptr inbounds nuw %"struct.std::_Vector_base<cv::Scalar_<double>, std::allocator<cv::Scalar_<double>>>::_Vector_impl_data", ptr %4, i32 0, i32 1
  %6 = load ptr, ptr %5, align 8, !tbaa !229
  %7 = getelementptr inbounds nuw %"struct.std::_Vector_base.52", ptr %3, i32 0, i32 0
  %8 = getelementptr inbounds nuw %"struct.std::_Vector_base<cv::Scalar_<double>, std::allocator<cv::Scalar_<double>>>::_Vector_impl_data", ptr %7, i32 0, i32 0
  %9 = load ptr, ptr %8, align 8, !tbaa !216
  %10 = ptrtoint ptr %6 to i64
  %11 = ptrtoint ptr %9 to i64
  %12 = sub i64 %10, %11
  %13 = sdiv exact i64 %12, 32
  ret i64 %13
}

; Function Attrs: inlinehint mustprogress nounwind uwtable
define linkonce_odr hidden void @_ZN2cv11_InputArray4initEiPKvNS_5Size_IiEE(ptr noundef nonnull align 8 dereferenceable(24) %0, i32 noundef %1, ptr noundef %2, i64 %3) #5 comdat align 2 {
  %5 = alloca %"class.cv::Size_", align 4
  %6 = alloca ptr, align 8
  %7 = alloca i32, align 4
  %8 = alloca ptr, align 8
  store i64 %3, ptr %5, align 4
  store ptr %0, ptr %6, align 8, !tbaa !86
  store i32 %1, ptr %7, align 4, !tbaa !3
  store ptr %2, ptr %8, align 8, !tbaa !293
  %9 = load ptr, ptr %6, align 8
  %10 = load i32, ptr %7, align 4, !tbaa !3
  %11 = getelementptr inbounds nuw %"class.cv::_InputArray", ptr %9, i32 0, i32 0
  store i32 %10, ptr %11, align 8, !tbaa !294
  %12 = load ptr, ptr %8, align 8, !tbaa !293
  %13 = getelementptr inbounds nuw %"class.cv::_InputArray", ptr %9, i32 0, i32 1
  store ptr %12, ptr %13, align 8, !tbaa !191
  %14 = getelementptr inbounds nuw %"class.cv::_InputArray", ptr %9, i32 0, i32 2
  call void @llvm.memcpy.p0.p0.i64(ptr align 8 %14, ptr align 4 %5, i64 8, i1 false), !tbaa.struct !75
  ret void
}

; Function Attrs: inlinehint mustprogress nounwind uwtable
define linkonce_odr hidden void @_ZN2cv5Size_IiEC2Eii(ptr noundef nonnull align 4 dereferenceable(8) %0, i32 noundef %1, i32 noundef %2) unnamed_addr #5 comdat align 2 {
  %4 = alloca ptr, align 8
  %5 = alloca i32, align 4
  %6 = alloca i32, align 4
  store ptr %0, ptr %4, align 8, !tbaa !199
  store i32 %1, ptr %5, align 4, !tbaa !3
  store i32 %2, ptr %6, align 4, !tbaa !3
  %7 = load ptr, ptr %4, align 8
  %8 = getelementptr inbounds nuw %"class.cv::Size_", ptr %7, i32 0, i32 0
  %9 = load i32, ptr %5, align 4, !tbaa !3
  store i32 %9, ptr %8, align 4, !tbaa !201
  %10 = getelementptr inbounds nuw %"class.cv::Size_", ptr %7, i32 0, i32 1
  %11 = load i32, ptr %6, align 4, !tbaa !3
  store i32 %11, ptr %10, align 4, !tbaa !202
  ret void
}

; Function Attrs: inlinehint mustprogress nounwind uwtable
define linkonce_odr hidden void @_ZN2cv5Size_IiEC2Ev(ptr noundef nonnull align 4 dereferenceable(8) %0) unnamed_addr #5 comdat align 2 {
  %2 = alloca ptr, align 8
  store ptr %0, ptr %2, align 8, !tbaa !199
  %3 = load ptr, ptr %2, align 8
  %4 = getelementptr inbounds nuw %"class.cv::Size_", ptr %3, i32 0, i32 0
  store i32 0, ptr %4, align 4, !tbaa !201
  %5 = getelementptr inbounds nuw %"class.cv::Size_", ptr %3, i32 0, i32 1
  store i32 0, ptr %5, align 4, !tbaa !202
  ret void
}

; Function Attrs: mustprogress nounwind uwtable
define linkonce_odr hidden noundef nonnull align 8 dereferenceable(32) ptr @_ZNSt6vectorIN2cv7Scalar_IdEESaIS2_EEixEm(ptr noundef nonnull align 8 dereferenceable(24) %0, i64 noundef %1) #8 comdat align 2 {
  %3 = alloca ptr, align 8
  %4 = alloca i64, align 8
  store ptr %0, ptr %3, align 8, !tbaa !214
  store i64 %1, ptr %4, align 8, !tbaa !38
  %5 = load ptr, ptr %3, align 8
  %6 = getelementptr inbounds nuw %"struct.std::_Vector_base.52", ptr %5, i32 0, i32 0
  %7 = getelementptr inbounds nuw %"struct.std::_Vector_base<cv::Scalar_<double>, std::allocator<cv::Scalar_<double>>>::_Vector_impl_data", ptr %6, i32 0, i32 0
  %8 = load ptr, ptr %7, align 8, !tbaa !216
  %9 = load i64, ptr %4, align 8, !tbaa !38
  %10 = getelementptr inbounds nuw %"class.cv::Scalar_", ptr %8, i64 %9
  ret ptr %10
}

; Function Attrs: mustprogress uwtable
define linkonce_odr hidden void @_ZNKSt6vectorIN2cv7Scalar_IdEESaIS2_EE14_M_range_checkEm(ptr noundef nonnull align 8 dereferenceable(24) %0, i64 noundef %1) #4 comdat align 2 {
  %3 = alloca ptr, align 8
  %4 = alloca i64, align 8
  store ptr %0, ptr %3, align 8, !tbaa !214
  store i64 %1, ptr %4, align 8, !tbaa !38
  %5 = load ptr, ptr %3, align 8
  %6 = load i64, ptr %4, align 8, !tbaa !38
  %7 = call noundef i64 @_ZNKSt6vectorIN2cv7Scalar_IdEESaIS2_EE4sizeEv(ptr noundef nonnull align 8 dereferenceable(24) %5) #3
  %8 = icmp uge i64 %6, %7
  br i1 %8, label %9, label %12

9:                                                ; preds = %2
  %10 = load i64, ptr %4, align 8, !tbaa !38
  %11 = call noundef i64 @_ZNKSt6vectorIN2cv7Scalar_IdEESaIS2_EE4sizeEv(ptr noundef nonnull align 8 dereferenceable(24) %5) #3
  call void (ptr, ...) @_ZSt24__throw_out_of_range_fmtPKcz(ptr noundef @.str.29, i64 noundef %10, i64 noundef %11) #22
  unreachable

12:                                               ; preds = %2
  ret void
}

; Function Attrs: inlinehint mustprogress nounwind uwtable
define linkonce_odr hidden void @_ZN2cv11_InputArrayD2Ev(ptr noundef nonnull align 8 dereferenceable(24) %0) unnamed_addr #5 comdat align 2 {
  %2 = alloca ptr, align 8
  store ptr %0, ptr %2, align 8, !tbaa !86
  ret void
}

; Function Attrs: inlinehint mustprogress uwtable
define linkonce_odr hidden void @_ZN2cv11_InputArrayC2IdLi4ELi1EEERKNS_4MatxIT_XT0_EXT1_EEE(ptr noundef nonnull align 8 dereferenceable(24) %0, ptr noundef nonnull align 8 dereferenceable(32) %1) unnamed_addr #7 comdat align 2 {
  %3 = alloca ptr, align 8
  %4 = alloca ptr, align 8
  %5 = alloca %"class.cv::Size_", align 4
  store ptr %0, ptr %3, align 8, !tbaa !86
  store ptr %1, ptr %4, align 8, !tbaa !226
  %6 = load ptr, ptr %3, align 8
  %7 = getelementptr inbounds nuw %"class.cv::_InputArray", ptr %6, i32 0, i32 2
  call void @_ZN2cv5Size_IiEC2Ev(ptr noundef nonnull align 4 dereferenceable(8) %7)
  %8 = load ptr, ptr %4, align 8, !tbaa !226
  call void @_ZN2cv5Size_IiEC2Eii(ptr noundef nonnull align 4 dereferenceable(8) %5, i32 noundef 1, i32 noundef 4)
  %9 = load i64, ptr %5, align 4
  call void @_ZN2cv11_InputArray4initEiPKvNS_5Size_IiEE(ptr noundef nonnull align 8 dereferenceable(24) %6, i32 noundef -1056833530, ptr noundef %8, i64 %9)
  ret void
}

; Function Attrs: mustprogress uwtable
define linkonce_odr hidden noundef nonnull align 8 dereferenceable(32) ptr @_ZNSt6vectorIN2cv7Scalar_IdEESaIS2_EE2atEm(ptr noundef nonnull align 8 dereferenceable(24) %0, i64 noundef %1) #4 comdat align 2 {
  %3 = alloca ptr, align 8
  %4 = alloca i64, align 8
  store ptr %0, ptr %3, align 8, !tbaa !214
  store i64 %1, ptr %4, align 8, !tbaa !38
  %5 = load ptr, ptr %3, align 8
  %6 = load i64, ptr %4, align 8, !tbaa !38
  call void @_ZNKSt6vectorIN2cv7Scalar_IdEESaIS2_EE14_M_range_checkEm(ptr noundef nonnull align 8 dereferenceable(24) %5, i64 noundef %6)
  %7 = load i64, ptr %4, align 8, !tbaa !38
  %8 = call noundef nonnull align 8 dereferenceable(32) ptr @_ZNSt6vectorIN2cv7Scalar_IdEESaIS2_EEixEm(ptr noundef nonnull align 8 dereferenceable(24) %5, i64 noundef %7) #3
  ret ptr %8
}

; Function Attrs: mustprogress uwtable
define void @_ZN2cv6detail19ChannelsCompensator5applyEiNS_6Point_IiEERKNS_17_InputOutputArrayERKNS_11_InputArrayE(ptr noundef nonnull align 8 dereferenceable(56) %0, i32 noundef %1, i64 %2, ptr noundef nonnull align 8 dereferenceable(24) %3, ptr noundef nonnull align 8 dereferenceable(24) %4) unnamed_addr #4 align 2 personality ptr @__gxx_personality_v0 {
  %6 = alloca %"class.cv::Point_", align 4
  %7 = alloca ptr, align 8
  %8 = alloca i32, align 4
  %9 = alloca ptr, align 8
  %10 = alloca ptr, align 8
  %11 = alloca %"class.cv::utils::trace::details::Region", align 8
  %12 = alloca %"class.cv::_InputArray", align 8
  %13 = alloca ptr, align 8
  %14 = alloca i32, align 4
  store i64 %2, ptr %6, align 4
  store ptr %0, ptr %7, align 8, !tbaa !203
  store i32 %1, ptr %8, align 4, !tbaa !3
  store ptr %3, ptr %9, align 8, !tbaa !84
  store ptr %4, ptr %10, align 8, !tbaa !86
  %15 = load ptr, ptr %7, align 8
  call void @llvm.lifetime.start.p0(i64 16, ptr %11) #3
  call void @_ZN2cv5utils5trace7details6RegionC1ERKNS3_21LocationStaticStorageE(ptr noundef nonnull align 8 dereferenceable(12) %11, ptr noundef nonnull align 8 dereferenceable(32) @_ZZN2cv6detail19ChannelsCompensator5applyEiNS_6Point_IiEERKNS_17_InputOutputArrayERKNS_11_InputArrayEE25__cv_trace_location_fn435)
  %16 = load ptr, ptr %9, align 8, !tbaa !84
  call void @llvm.lifetime.start.p0(i64 24, ptr %12) #3
  %17 = getelementptr inbounds nuw %"class.cv::detail::ChannelsCompensator", ptr %15, i32 0, i32 1
  %18 = load i32, ptr %8, align 4, !tbaa !3
  %19 = sext i32 %18 to i64
  %20 = invoke noundef nonnull align 8 dereferenceable(32) ptr @_ZNSt6vectorIN2cv7Scalar_IdEESaIS2_EE2atEm(ptr noundef nonnull align 8 dereferenceable(24) %17, i64 noundef %19)
          to label %21 unwind label %25

21:                                               ; preds = %5
  invoke void @_ZN2cv11_InputArrayC2IdLi4ELi1EEERKNS_4MatxIT_XT0_EXT1_EEE(ptr noundef nonnull align 8 dereferenceable(24) %12, ptr noundef nonnull align 8 dereferenceable(32) %20)
          to label %22 unwind label %25

22:                                               ; preds = %21
  %23 = load ptr, ptr %9, align 8, !tbaa !84
  invoke void @_ZN2cv8multiplyERKNS_11_InputArrayES2_RKNS_12_OutputArrayEdi(ptr noundef nonnull align 8 dereferenceable(24) %16, ptr noundef nonnull align 8 dereferenceable(24) %12, ptr noundef nonnull align 8 dereferenceable(24) %23, double noundef 1.000000e+00, i32 noundef -1)
          to label %24 unwind label %29

24:                                               ; preds = %22
  call void @_ZN2cv11_InputArrayD2Ev(ptr noundef nonnull align 8 dereferenceable(24) %12) #3
  call void @llvm.lifetime.end.p0(i64 24, ptr %12) #3
  call void @_ZN2cv5utils5trace7details6RegionD2Ev(ptr noundef nonnull align 8 dereferenceable(12) %11) #3
  call void @llvm.lifetime.end.p0(i64 16, ptr %11) #3
  ret void

25:                                               ; preds = %21, %5
  %26 = landingpad { ptr, i32 }
          cleanup
  %27 = extractvalue { ptr, i32 } %26, 0
  store ptr %27, ptr %13, align 8
  %28 = extractvalue { ptr, i32 } %26, 1
  store i32 %28, ptr %14, align 4
  br label %33

29:                                               ; preds = %22
  %30 = landingpad { ptr, i32 }
          cleanup
  %31 = extractvalue { ptr, i32 } %30, 0
  store ptr %31, ptr %13, align 8
  %32 = extractvalue { ptr, i32 } %30, 1
  store i32 %32, ptr %14, align 4
  call void @_ZN2cv11_InputArrayD2Ev(ptr noundef nonnull align 8 dereferenceable(24) %12) #3
  br label %33

33:                                               ; preds = %29, %25
  call void @llvm.lifetime.end.p0(i64 24, ptr %12) #3
  call void @_ZN2cv5utils5trace7details6RegionD2Ev(ptr noundef nonnull align 8 dereferenceable(12) %11) #3
  call void @llvm.lifetime.end.p0(i64 16, ptr %11) #3
  br label %34

34:                                               ; preds = %33
  %35 = load ptr, ptr %13, align 8
  %36 = load i32, ptr %14, align 4
  %37 = insertvalue { ptr, i32 } poison, ptr %35, 0
  %38 = insertvalue { ptr, i32 } %37, i32 %36, 1
  resume { ptr, i32 } %38
}