; Function Attrs: mustprogress uwtable
define void @_ZN2cv6detail19ChannelsCompensator5applyEiNS_6Point_IiEERKNS_17_InputOutputArrayERKNS_11_InputArrayE(ptr noundef nonnull readonly align 8 captures(none) dereferenceable(56) %0, i32 noundef %1, i64 %2, ptr noundef nonnull align 8 dereferenceable(24) %3, ptr nonnull readnone align 8 captures(none) %4) unnamed_addr #3 align 2 personality ptr @__gxx_personality_v0 {
  %6 = alloca %"class.cv::utils::trace::details::Region", align 8
  %7 = alloca %"class.cv::_InputArray", align 8
  call void @llvm.lifetime.start.p0(i64 16, ptr nonnull %6) #25
  call void @_ZN2cv5utils5trace7details6RegionC1ERKNS3_21LocationStaticStorageE(ptr noundef nonnull align 8 dereferenceable(12) %6, ptr noundef nonnull align 8 dereferenceable(32) @_ZZN2cv6detail19ChannelsCompensator5applyEiNS_6Point_IiEERKNS_17_InputOutputArrayERKNS_11_InputArrayEE25__cv_trace_location_fn435)
  call void @llvm.lifetime.start.p0(i64 24, ptr nonnull %7) #25
  %8 = getelementptr inbounds nuw i8, ptr %0, i64 16
  %9 = sext i32 %1 to i64
  %10 = getelementptr inbounds nuw i8, ptr %0, i64 24
  %11 = load ptr, ptr %10, align 8, !tbaa !223
  %12 = load ptr, ptr %8, align 8, !tbaa !222
  %13 = ptrtoint ptr %11 to i64
  %14 = ptrtoint ptr %12 to i64
  %15 = sub i64 %13, %14
  %16 = ashr exact i64 %15, 5
  %.not.i.i = icmp ugt i64 %16, %9
  br i1 %.not.i.i, label %18, label %17

17:                                               ; preds = %5
  invoke void (ptr, ...) @_ZSt24__throw_out_of_range_fmtPKcz(ptr noundef nonnull @.str.29, i64 noundef %9, i64 noundef %16) #26
          to label %.noexc unwind label %29

.noexc:                                           ; preds = %17
  unreachable

18:                                               ; preds = %5
  %19 = getelementptr inbounds nuw %"class.cv::Scalar_", ptr %12, i64 %9
  %20 = getelementptr inbounds nuw i8, ptr %7, i64 16
  store i32 -1056833530, ptr %7, align 8, !tbaa !107
  %21 = getelementptr inbounds nuw i8, ptr %7, i64 8
  store ptr %19, ptr %21, align 8, !tbaa !110
  store i64 17179869185, ptr %20, align 8
  invoke void @_ZN2cv8multiplyERKNS_11_InputArrayES2_RKNS_12_OutputArrayEdi(ptr noundef nonnull align 8 dereferenceable(24) %3, ptr noundef nonnull align 8 dereferenceable(24) %7, ptr noundef nonnull align 8 dereferenceable(24) %3, double noundef 1.000000e+00, i32 noundef -1)
          to label %22 unwind label %31

22:                                               ; preds = %18
  call void @llvm.lifetime.end.p0(i64 24, ptr nonnull %7) #25
  %23 = getelementptr inbounds nuw i8, ptr %6, i64 8
  %24 = load i32, ptr %23, align 8, !tbaa !165
  %.not.i = icmp eq i32 %24, 0
  br i1 %.not.i, label %_ZN2cv5utils5trace7details6RegionD2Ev.exit, label %25

25:                                               ; preds = %22
  invoke void @_ZN2cv5utils5trace7details6Region7destroyEv(ptr noundef nonnull align 8 dereferenceable(12) %6)
          to label %_ZN2cv5utils5trace7details6RegionD2Ev.exit unwind label %26

26:                                               ; preds = %25
  %27 = landingpad { ptr, i32 }
          catch ptr null
  %28 = extractvalue { ptr, i32 } %27, 0
  call void @__clang_call_terminate(ptr %28) #28
  unreachable

_ZN2cv5utils5trace7details6RegionD2Ev.exit:       ; preds = %22, %25
  call void @llvm.lifetime.end.p0(i64 16, ptr nonnull %6) #25
  ret void

29:                                               ; preds = %17
  %30 = landingpad { ptr, i32 }
          cleanup
  br label %33

31:                                               ; preds = %18
  %32 = landingpad { ptr, i32 }
          cleanup
  br label %33

33:                                               ; preds = %31, %29
  %.pn = phi { ptr, i32 } [ %32, %31 ], [ %30, %29 ]
  call void @llvm.lifetime.end.p0(i64 24, ptr nonnull %7) #25
  call void @_ZN2cv5utils5trace7details6RegionD2Ev(ptr noundef nonnull align 8 dereferenceable(12) %6) #25
  call void @llvm.lifetime.end.p0(i64 16, ptr nonnull %6) #25
  resume { ptr, i32 } %.pn
}